; Function Attrs: mustprogress uwtable
define void @_ZN7rocksdb14ThreadLocalPtr10StaticMeta6ScrapeEjPNS_10autovectorIPvLm8EEES3_(ptr noundef nonnull readonly align 8 dereferenceable(228) %0, i32 noundef %1, ptr noundef %2, ptr noundef %3) local_unnamed_addr #0 align 2 personality ptr @__gxx_personality_v0 {
  %5 = alloca ptr, align 8
  %6 = load atomic i8, ptr @_ZGVZN7rocksdb14ThreadLocalPtr8InstanceEvE4inst acquire, align 8
  %7 = icmp eq i8 %6, 0
  br i1 %7, label %8, label %_ZN7rocksdb14ThreadLocalPtr10StaticMeta5MutexEv.exit, !prof !4

8:                                                ; preds = %4
  %9 = tail call i32 @__cxa_guard_acquire(ptr nonnull @_ZGVZN7rocksdb14ThreadLocalPtr8InstanceEvE4inst) #19
  %.not.i.i = icmp eq i32 %9, 0
  br i1 %.not.i.i, label %_ZN7rocksdb14ThreadLocalPtr10StaticMeta5MutexEv.exit, label %10

10:                                               ; preds = %8
  %11 = invoke noalias noundef nonnull dereferenceable(232) ptr @_Znwm(i64 noundef 232) #20
          to label %12 unwind label %14

12:                                               ; preds = %10
  invoke void @_ZN7rocksdb14ThreadLocalPtr10StaticMetaC1Ev(ptr noundef nonnull align 8 dereferenceable(228) %11)
          to label %13 unwind label %16

13:                                               ; preds = %12
  store ptr %11, ptr @_ZZN7rocksdb14ThreadLocalPtr8InstanceEvE4inst, align 8, !tbaa !5
  tail call void @__cxa_guard_release(ptr nonnull @_ZGVZN7rocksdb14ThreadLocalPtr8InstanceEvE4inst) #19
  br label %_ZN7rocksdb14ThreadLocalPtr10StaticMeta5MutexEv.exit

14:                                               ; preds = %10
  %15 = landingpad { ptr, i32 }
          cleanup
  br label %18

16:                                               ; preds = %12
  %17 = landingpad { ptr, i32 }
          cleanup
  tail call void @_ZdlPvm(ptr noundef nonnull %11, i64 noundef 232) #21
  br label %18

common.resume:                                    ; preds = %41, %18
  %common.resume.op = phi { ptr, i32 } [ %.pn.i.i, %18 ], [ %42, %41 ]
  resume { ptr, i32 } %common.resume.op

18:                                               ; preds = %16, %14
  %.pn.i.i = phi { ptr, i32 } [ %17, %16 ], [ %15, %14 ]
  tail call void @__cxa_guard_abort(ptr nonnull @_ZGVZN7rocksdb14ThreadLocalPtr8InstanceEvE4inst) #19
  br label %common.resume

_ZN7rocksdb14ThreadLocalPtr10StaticMeta5MutexEv.exit: ; preds = %4, %8, %13
  %19 = load ptr, ptr @_ZZN7rocksdb14ThreadLocalPtr8InstanceEvE4inst, align 8, !tbaa !5
  %20 = getelementptr inbounds nuw i8, ptr %19, i64 184
  tail call void @_ZN7rocksdb4port5Mutex4LockEv(ptr noundef nonnull align 8 dereferenceable(40) %20)
  %21 = getelementptr inbounds nuw i8, ptr %0, i64 80
  %22 = getelementptr inbounds nuw i8, ptr %0, i64 104
  %.014 = load ptr, ptr %22, align 8, !tbaa !41
  %.not15 = icmp eq ptr %.014, %21
  br i1 %.not15, label %._crit_edge, label %.lr.ph

.lr.ph:                                           ; preds = %_ZN7rocksdb14ThreadLocalPtr10StaticMeta5MutexEv.exit
  %23 = zext i32 %1 to i64
  %24 = ptrtoint ptr %3 to i64
  br label %28

._crit_edge:                                      ; preds = %47, %_ZN7rocksdb14ThreadLocalPtr10StaticMeta5MutexEv.exit
  invoke void @_ZN7rocksdb4port5Mutex6UnlockEv(ptr noundef nonnull align 8 dereferenceable(40) %20)
          to label %_ZN7rocksdb9MutexLockD2Ev.exit unwind label %25

25:                                               ; preds = %._crit_edge
  %26 = landingpad { ptr, i32 }
          catch ptr null
  %27 = extractvalue { ptr, i32 } %26, 0
  call void @__clang_call_terminate(ptr %27) #22
  unreachable

_ZN7rocksdb9MutexLockD2Ev.exit:                   ; preds = %._crit_edge
  ret void

28:                                               ; preds = %.lr.ph, %47
  %.016 = phi ptr [ %.014, %.lr.ph ], [ %.0, %47 ]
  %29 = getelementptr inbounds nuw i8, ptr %.016, i64 8
  %30 = load ptr, ptr %29, align 8, !tbaa !70
  %31 = load ptr, ptr %.016, align 8, !tbaa !38
  %32 = ptrtoint ptr %30 to i64
  %33 = ptrtoint ptr %31 to i64
  %34 = sub i64 %32, %33
  %35 = ashr exact i64 %34, 3
  %36 = icmp ugt i64 %35, %23
  br i1 %36, label %37, label %47

37:                                               ; preds = %28
  call void @llvm.lifetime.start.p0(i64 8, ptr nonnull %5) #19
  %38 = getelementptr inbounds nuw %"struct.rocksdb::Entry", ptr %31, i64 %23
  %39 = atomicrmw xchg ptr %38, i64 %24 acquire, align 8
  %.0.i.i = inttoptr i64 %39 to ptr
  store ptr %.0.i.i, ptr %5, align 8, !tbaa !75
  %.not11 = icmp eq i64 %39, 0
  br i1 %.not11, label %46, label %40

40:                                               ; preds = %37
  invoke void @_ZN7rocksdb10autovectorIPvLm8EE9push_backERKS1_(ptr noundef nonnull align 8 dereferenceable(104) %2, ptr noundef nonnull align 8 dereferenceable(8) %5)
          to label %46 unwind label %41

41:                                               ; preds = %40
  %42 = landingpad { ptr, i32 }
          cleanup
  call void @llvm.lifetime.end.p0(i64 8, ptr nonnull %5) #19
  invoke void @_ZN7rocksdb4port5Mutex6UnlockEv(ptr noundef nonnull align 8 dereferenceable(40) %20)
          to label %common.resume unwind label %43

43:                                               ; preds = %41
  %44 = landingpad { ptr, i32 }
          catch ptr null
  %45 = extractvalue { ptr, i32 } %44, 0
  call void @__clang_call_terminate(ptr %45) #22
  unreachable

46:                                               ; preds = %40, %37
  call void @llvm.lifetime.end.p0(i64 8, ptr nonnull %5) #19
  br label %47

47:                                               ; preds = %28, %46
  %48 = getelementptr inbounds nuw i8, ptr %.016, i64 24
  %.0 = load ptr, ptr %48, align 8, !tbaa !41
  %.not = icmp eq ptr %.0, %21
  br i1 %.not, label %._crit_edge, label %28, !llvm.loop !76
}